target datalayout = "e-m:e-p270:32:32-p271:32:32-p272:64:64-i64:64-i128:128-f80:128-n8:16:32:64-S128"
target triple = "x86_64-pc-linux-gnu"

%"struct.icu_77::FormattedStringBuilder::Field" = type { i8 }

; Function Attrs: mustprogress nounwind uwtable
define linkonce_odr void @_ZN6icu_7722FormattedStringBuilder5FieldC2Ehh(ptr noundef nonnull align 1 dereferenceable(1) %0, i8 noundef zeroext %1, i8 noundef zeroext %2) unnamed_addr #0 comdat align 2 {
  %4 = alloca ptr, align 8
  %5 = alloca i8, align 1
  %6 = alloca i8, align 1
  store ptr %0, ptr %4, align 8, !tbaa !36
  store i8 %1, ptr %5, align 1, !tbaa !21
  store i8 %2, ptr %6, align 1, !tbaa !21
  %7 = load ptr, ptr %4, align 8
  %8 = getelementptr inbounds nuw %"struct.icu_77::FormattedStringBuilder::Field", ptr %7, i32 0, i32 0
  %9 = load i8, ptr %5, align 1, !tbaa !21
  %10 = zext i8 %9 to i32
  %11 = shl i32 %10, 4
  %12 = load i8, ptr %6, align 1, !tbaa !21
  %13 = zext i8 %12 to i32
  %14 = or i32 %11, %13
  %15 = trunc i32 %14 to i8
  store i8 %15, ptr %8, align 1, !tbaa !38
  ret void
}

; Function Attrs: mustprogress uwtable
define i8 @_ZN6icu_776number4impl10AffixUtils15getFieldForTypeENS1_16AffixPatternTypeE(i32 noundef %0) #2 align 2 {
  %2 = alloca %"struct.icu_77::FormattedStringBuilder::Field", align 1
  %3 = alloca i32, align 4
  store i32 %0, ptr %3, align 4, !tbaa !34
  %4 = load i32, ptr %3, align 4, !tbaa !34
  switch i32 %4, label %16 [
    i32 -1, label %5
    i32 -2, label %6
    i32 -3, label %7
    i32 -4, label %8
    i32 -5, label %9
    i32 -6, label %10
    i32 -7, label %11
    i32 -8, label %12
    i32 -9, label %13
    i32 -10, label %14
    i32 -15, label %15
  ]

5:                                                ; preds = %1
  call void @_ZN6icu_7722FormattedStringBuilder5FieldC2Ehh(ptr noundef nonnull align 1 dereferenceable(1) %2, i8 noundef zeroext 2, i8 noundef zeroext 10)
  br label %17

6:                                                ; preds = %1
  call void @_ZN6icu_7722FormattedStringBuilder5FieldC2Ehh(ptr noundef nonnull align 1 dereferenceable(1) %2, i8 noundef zeroext 2, i8 noundef zeroext 10)
  br label %17

7:                                                ; preds = %1
  call void @_ZN6icu_7722FormattedStringBuilder5FieldC2Ehh(ptr noundef nonnull align 1 dereferenceable(1) %2, i8 noundef zeroext 2, i8 noundef zeroext 13)
  br label %17

8:                                                ; preds = %1
  call void @_ZN6icu_7722FormattedStringBuilder5FieldC2Ehh(ptr noundef nonnull align 1 dereferenceable(1) %2, i8 noundef zeroext 2, i8 noundef zeroext 8)
  br label %17

9:                                                ; preds = %1
  call void @_ZN6icu_7722FormattedStringBuilder5FieldC2Ehh(ptr noundef nonnull align 1 dereferenceable(1) %2, i8 noundef zeroext 2, i8 noundef zeroext 9)
  br label %17

10:                                               ; preds = %1
  call void @_ZN6icu_7722FormattedStringBuilder5FieldC2Ehh(ptr noundef nonnull align 1 dereferenceable(1) %2, i8 noundef zeroext 2, i8 noundef zeroext 7)
  br label %17

11:                                               ; preds = %1
  call void @_ZN6icu_7722FormattedStringBuilder5FieldC2Ehh(ptr noundef nonnull align 1 dereferenceable(1) %2, i8 noundef zeroext 2, i8 noundef zeroext 7)
  br label %17

12:                                               ; preds = %1
  call void @_ZN6icu_7722FormattedStringBuilder5FieldC2Ehh(ptr noundef nonnull align 1 dereferenceable(1) %2, i8 noundef zeroext 2, i8 noundef zeroext 7)
  br label %17

13:                                               ; preds = %1
  call void @_ZN6icu_7722FormattedStringBuilder5FieldC2Ehh(ptr noundef nonnull align 1 dereferenceable(1) %2, i8 noundef zeroext 2, i8 noundef zeroext 7)
  br label %17

14:                                               ; preds = %1
  call void @_ZN6icu_7722FormattedStringBuilder5FieldC2Ehh(ptr noundef nonnull align 1 dereferenceable(1) %2, i8 noundef zeroext 2, i8 noundef zeroext 7)
  br label %17

15:                                               ; preds = %1
  call void @_ZN6icu_7722FormattedStringBuilder5FieldC2Ehh(ptr noundef nonnull align 1 dereferenceable(1) %2, i8 noundef zeroext 2, i8 noundef zeroext 7)
  br label %17

16:                                               ; preds = %1
  call void @abort() #10
  unreachable

17:                                               ; preds = %15, %14, %13, %12, %11, %10, %9, %8, %7, %6, %5
  %18 = getelementptr inbounds nuw %"struct.icu_77::FormattedStringBuilder::Field", ptr %2, i32 0, i32 0
  %19 = load i8, ptr %18, align 1
  ret i8 %19
}