; Function Attrs: mustprogress nofree nounwind uwtable
define range(i8 39, 46) i8 @_ZN6icu_776number4impl10AffixUtils15getFieldForTypeENS1_16AffixPatternTypeE(i32 noundef %0) local_unnamed_addr #8 align 2 {
  %switch.tableidx = add i32 %0, 15
  %2 = icmp ugt i32 %0, -16
  br i1 %2, label %switch.hole_check, label %3

3:                                                ; preds = %switch.hole_check, %1
  tail call void @abort() #10
  unreachable

switch.hole_check:                                ; preds = %1
  %switch.maskindex = trunc i32 %switch.tableidx to i16
  %switch.shifted = lshr i16 32737, %switch.maskindex
  %switch.lobit = trunc i16 %switch.shifted to i1
  br i1 %switch.lobit, label %switch.lookup, label %3

switch.lookup:                                    ; preds = %switch.hole_check
  %4 = sext i32 %switch.tableidx to i64
  %switch.gep = getelementptr inbounds [15 x i8], ptr @switch.table._ZN6icu_776number4impl10AffixUtils8unescapeERKNS_13UnicodeStringERNS_22FormattedStringBuilderEiRKNS1_14SymbolProviderENS6_5FieldER10UErrorCode, i64 0, i64 %4
  %switch.load = load i8, ptr %switch.gep, align 1
  ret i8 %switch.load
}